; Function Attrs: mustprogress nofree norecurse nosync nounwind memory(read, argmem: readwrite, inaccessiblemem: none) uwtable
define void @_ZN5Ipopt13TripletHelper11FillRowCol_EiRKNS_10GenTMatrixEiiPiS4_(i32 noundef %0, ptr noundef nonnull readonly align 8 captures(none) dereferenceable(89) %1, i32 noundef %2, i32 noundef %3, ptr noundef writeonly captures(none) %4, ptr noundef writeonly captures(none) %5) local_unnamed_addr #5 align 2 {
  %7 = getelementptr inbounds nuw i8, ptr %1, i64 72
  %8 = load ptr, ptr %7, align 8, !tbaa !3
  %9 = getelementptr inbounds nuw i8, ptr %8, i64 32
  %10 = load ptr, ptr %9, align 8, !tbaa !141
  %11 = getelementptr inbounds nuw i8, ptr %8, i64 24
  %12 = load ptr, ptr %11, align 8, !tbaa !142
  %13 = icmp sgt i32 %0, 0
  br i1 %13, label %.lr.ph.preheader, label %._crit_edge

.lr.ph.preheader:                                 ; preds = %6
  %wide.trip.count = zext nneg i32 %0 to i64
  br label %.lr.ph

._crit_edge:                                      ; preds = %.lr.ph, %6
  ret void

.lr.ph:                                           ; preds = %.lr.ph.preheader, %.lr.ph
  %indvars.iv = phi i64 [ 0, %.lr.ph.preheader ], [ %indvars.iv.next, %.lr.ph ]
  %14 = getelementptr inbounds nuw i32, ptr %10, i64 %indvars.iv
  %15 = load i32, ptr %14, align 4, !tbaa !143
  %16 = add nsw i32 %15, %2
  %17 = getelementptr inbounds nuw i32, ptr %4, i64 %indvars.iv
  store i32 %16, ptr %17, align 4, !tbaa !143
  %18 = getelementptr inbounds nuw i32, ptr %12, i64 %indvars.iv
  %19 = load i32, ptr %18, align 4, !tbaa !143
  %20 = add nsw i32 %19, %3
  %21 = getelementptr inbounds nuw i32, ptr %5, i64 %indvars.iv
  store i32 %20, ptr %21, align 4, !tbaa !143
  %indvars.iv.next = add nuw nsw i64 %indvars.iv, 1
  %exitcond.not = icmp eq i64 %indvars.iv.next, %wide.trip.count
  br i1 %exitcond.not, label %._crit_edge, label %.lr.ph, !llvm.loop !144
}